; ModuleID = 'source-C-CXX/32/2382.c'
source_filename = "source-C-CXX/32/2382.c"
target datalayout = "e-m:e-p270:32:32-p271:32:32-p272:64:64-i64:64-f80:128-n8:16:32:64-S128"
target triple = "x86_64-pc-linux-gnu"

@.str = private unnamed_addr constant [3 x i8] c"%d\00", align 1
@.str.1 = private unnamed_addr constant [3 x i8] c"%s\00", align 1

; Function Attrs: nofree nounwind sspstrong uwtable
define dso_local i32 @main() local_unnamed_addr #0 {
  %1 = alloca i32, align 4
  %2 = alloca [300 x i8], align 16
  %3 = bitcast i32* %1 to i8*
  call void @llvm.lifetime.start.p0i8(i64 4, i8* nonnull %3) #5
  %4 = getelementptr inbounds [300 x i8], [300 x i8]* %2, i64 0, i64 0
  call void @llvm.lifetime.start.p0i8(i64 300, i8* nonnull %4) #5
  %5 = call i32 (i8*, ...) @__isoc99_scanf(i8* getelementptr inbounds ([3 x i8], [3 x i8]* @.str, i64 0, i64 0), i32* nonnull %1)
  %6 = load i32, i32* %1, align 4, !tbaa !5
  %7 = icmp slt i32 %6, 1
  br i1 %7, label %8, label %9

8:                                                ; preds = %14, %0
  call void @llvm.lifetime.end.p0i8(i64 300, i8* nonnull %4) #5
  call void @llvm.lifetime.end.p0i8(i64 4, i8* nonnull %3) #5
  ret i32 0

9:                                                ; preds = %0, %14
  %10 = phi i32 [ %16, %14 ], [ 1, %0 ]
  %11 = call i32 (i8*, ...) @__isoc99_scanf(i8* getelementptr inbounds ([3 x i8], [3 x i8]* @.str.1, i64 0, i64 0), i8* nonnull %4)
  %12 = load i8, i8* %4, align 16
  %13 = icmp eq i8 %12, 0
  br i1 %13, label %14, label %19

14:                                               ; preds = %44, %9
  %15 = call i32 @putchar(i32 10)
  %16 = add nuw nsw i32 %10, 1
  %17 = load i32, i32* %1, align 4, !tbaa !5
  %18 = icmp slt i32 %10, %17
  br i1 %18, label %9, label %8, !llvm.loop !9

19:                                               ; preds = %9, %48
  %20 = phi i8 [ %50, %48 ], [ %12, %9 ]
  %21 = phi i64 [ %45, %48 ], [ 0, %9 ]
  %22 = getelementptr inbounds [300 x i8], [300 x i8]* %2, i64 0, i64 %21
  %23 = icmp eq i8 %20, 65
  br i1 %23, label %24, label %27

24:                                               ; preds = %19
  %25 = call i32 @putchar(i32 84)
  %26 = load i8, i8* %22, align 1, !tbaa !11
  br label %27

27:                                               ; preds = %24, %19
  %28 = phi i8 [ %26, %24 ], [ %20, %19 ]
  %29 = icmp eq i8 %28, 84
  br i1 %29, label %30, label %33

30:                                               ; preds = %27
  %31 = call i32 @putchar(i32 65)
  %32 = load i8, i8* %22, align 1, !tbaa !11
  br label %33

33:                                               ; preds = %30, %27
  %34 = phi i8 [ %32, %30 ], [ %28, %27 ]
  %35 = icmp eq i8 %34, 67
  br i1 %35, label %36, label %39

36:                                               ; preds = %33
  %37 = call i32 @putchar(i32 71)
  %38 = load i8, i8* %22, align 1, !tbaa !11
  br label %39

39:                                               ; preds = %36, %33
  %40 = phi i8 [ %38, %36 ], [ %34, %33 ]
  %41 = icmp eq i8 %40, 71
  br i1 %41, label %42, label %44

42:                                               ; preds = %39
  %43 = call i32 @putchar(i32 67)
  br label %44

44:                                               ; preds = %39, %42
  %45 = add nuw i64 %21, 1
  %46 = call i64 @strlen(i8* noundef nonnull %4) #6
  %47 = icmp ugt i64 %46, %45
  br i1 %47, label %48, label %14, !llvm.loop !12

48:                                               ; preds = %44
  %49 = getelementptr inbounds [300 x i8], [300 x i8]* %2, i64 0, i64 %45
  %50 = load i8, i8* %49, align 1, !tbaa !11
  br label %19
}

; Function Attrs: argmemonly mustprogress nofree nosync nounwind willreturn
declare void @llvm.lifetime.start.p0i8(i64 immarg, i8* nocapture) #1

; Function Attrs: nofree nounwind
declare noundef i32 @__isoc99_scanf(i8* nocapture noundef readonly, ...) local_unnamed_addr #2

; Function Attrs: argmemonly mustprogress nofree nounwind readonly willreturn
declare i64 @strlen(i8* nocapture) local_unnamed_addr #3

; Function Attrs: argmemonly mustprogress nofree nosync nounwind willreturn
declare void @llvm.lifetime.end.p0i8(i64 immarg, i8* nocapture) #1

; Function Attrs: nofree nounwind
declare noundef i32 @putchar(i32 noundef) local_unnamed_addr #4


!llvm.module.flags = !{!0, !1, !2, !3}
!llvm.ident = !{!4}

!0 = !{i32 1, !"wchar_size", i32 4}
!1 = !{i32 7, !"PIC Level", i32 2}
!2 = !{i32 7, !"PIE Level", i32 2}
!3 = !{i32 7, !"uwtable", i32 1}
!4 = !{!"clang version 13.0.0"}
!5 = !{!6, !6, i64 0}
!6 = !{!"int", !7, i64 0}
!7 = !{!"omnipotent char", !8, i64 0}
!8 = !{!"Simple C/C++ TBAA"}
!9 = distinct !{!9, !10}
!10 = !{!"llvm.loop.mustprogress"}
!11 = !{!7, !7, i64 0}
!12 = distinct !{!12, !10}
